   1              		.arch armv2a
   2              		.fpu softvfp
   3              		.eabi_attribute 20, 1
   4              		.eabi_attribute 21, 1
   5              		.eabi_attribute 23, 3
   6              		.eabi_attribute 24, 1
   7              		.eabi_attribute 25, 1
   8              		.eabi_attribute 26, 1
   9              		.eabi_attribute 30, 4
  10              		.eabi_attribute 34, 0
  11              		.eabi_attribute 18, 4
  12              		.file	"printf.c"
  13              		.text
  14              		.align	2
  15              		.global	outbyte
  17              	outbyte:
  18              		@ args = 0, pretend = 0, frame = 0
  19              		@ frame_needed = 0, uses_anonymous_args = 0
  20              		@ link register save eliminated.
  21 0000 0020A0E1 		mov	r2, r0
  22 0004 003090E5 		ldr	r3, [r0]
  23 0008 000053E3 		cmp	r3, #0
  24 000c 0300000A 		beq	.L2
  25 0010 010083E2 		add	r0, r3, #1
  26 0014 000082E5 		str	r0, [r2]
  27 0018 0010C3E5 		strb	r1, [r3]
  28 001c 0EF0A0E1 		mov	pc, lr
  29              	.L2:
  30 0020 0100A0E1 		mov	r0, r1
  31 0024 FEFFFFEA 		b	_outbyte
  33              		.align	2
  34              		.global	prints
  36              	prints:
  37              		@ args = 0, pretend = 0, frame = 0
  38              		@ frame_needed = 0, uses_anonymous_args = 0
  39 0028 F8432DE9 		stmfd	sp!, {r3, r4, r5, r6, r7, r8, r9, lr}
  40 002c 0180A0E1 		mov	r8, r1
  41 0030 004052E2 		subs	r4, r2, #0
  42 0034 0020A0C3 		movgt	r2, #0
  43 0038 0A0000DA 		ble	.L23
  44              	.L8:
  45 003c 0210D8E7 		ldrb	r1, [r8, r2]	@ zero_extendqisi2
  46 0040 000051E3 		cmp	r1, #0
  47 0044 01208212 		addne	r2, r2, #1
  48 0048 FBFFFF1A 		bne	.L8
  49              	.L24:
  50 004c 040052E1 		cmp	r2, r4
  51 0050 044062B0 		rsblt	r4, r2, r4
  52 0054 0140A0A1 		movge	r4, r1
  53 0058 020013E3 		tst	r3, #2
  54 005c 3070A013 		movne	r7, #48
  55 0060 2070A003 		moveq	r7, #32
  56 0064 000000EA 		b	.L7
  57              	.L23:
  58 0068 2070A0E3 		mov	r7, #32
  59              	.L7:
  60 006c 010013E3 		tst	r3, #1
  61 0070 0450A001 		moveq	r5, r4
  62 0074 0800001A 		bne	.L25
  63              	.L12:
  64 0078 000055E3 		cmp	r5, #0
  65 007c 030000DA 		ble	.L26
  66 0080 0700A0E1 		mov	r0, r7
  67 0084 FEFFFFEB 		bl	_outbyte
  68 0088 015045E2 		sub	r5, r5, #1
  69 008c F9FFFFEA 		b	.L12
  70              	.L26:
  71 0090 C46FC4E1 		bic	r6, r4, r4, asr #31
  72 0094 044066E0 		rsb	r4, r6, r4
  73 0098 000000EA 		b	.L11
  74              	.L25:
  75 009c 0060A0E3 		mov	r6, #0
  76              	.L11:
  77 00a0 0650A0E1 		mov	r5, r6
  78              	.L14:
  79 00a4 089066E0 		rsb	r9, r6, r8
  80 00a8 0530D9E7 		ldrb	r3, [r9, r5]	@ zero_extendqisi2
  81 00ac 000053E3 		cmp	r3, #0
  82 00b0 0600000A 		beq	.L27
  83 00b4 0A0053E3 		cmp	r3, #10
  84 00b8 0D00A003 		moveq	r0, #13
  85 00bc FEFFFF0B 		bleq	_outbyte
  86              	.L15:
  87 00c0 0500D9E7 		ldrb	r0, [r9, r5]	@ zero_extendqisi2
  88 00c4 FEFFFFEB 		bl	_outbyte
  89 00c8 015085E2 		add	r5, r5, #1
  90 00cc F4FFFFEA 		b	.L14
  91              	.L27:
  92 00d0 0460A0E1 		mov	r6, r4
  93              	.L17:
  94 00d4 000056E3 		cmp	r6, #0
  95 00d8 030000DA 		ble	.L28
  96 00dc 0700A0E1 		mov	r0, r7
  97 00e0 FEFFFFEB 		bl	_outbyte
  98 00e4 016046E2 		sub	r6, r6, #1
  99 00e8 F9FFFFEA 		b	.L17
 100              	.L28:
 101 00ec 000054E3 		cmp	r4, #0
 102 00f0 040085A0 		addge	r0, r5, r4
 103 00f4 000085B2 		addlt	r0, r5, #0
 104 00f8 F883BDE8 		ldmfd	sp!, {r3, r4, r5, r6, r7, r8, r9, pc}
 106              		.align	2
 107              		.global	printf
 109              	printf:
 110              		@ args = 4, pretend = 16, frame = 24
 111              		@ frame_needed = 0, uses_anonymous_args = 1
 112 00fc 0F002DE9 		stmfd	sp!, {r0, r1, r2, r3}
 113 0100 F0432DE9 		stmfd	sp!, {r4, r5, r6, r7, r8, r9, lr}
 114 0104 1CD04DE2 		sub	sp, sp, #28
 115 0108 38509DE5 		ldr	r5, [sp, #56]
 116 010c 3C308DE2 		add	r3, sp, #60
 117 0110 04308DE5 		str	r3, [sp, #4]
 118 0114 0040A0E3 		mov	r4, #0
 119              	.L30:
 120 0118 0030D5E5 		ldrb	r3, [r5]	@ zero_extendqisi2
 121 011c 000053E3 		cmp	r3, #0
 122 0120 9500000A 		beq	.L62
 123 0124 250053E3 		cmp	r3, #37
 124 0128 8A00001A 		bne	.L31
 125 012c 013085E2 		add	r3, r5, #1
 126 0130 0120D5E5 		ldrb	r2, [r5, #1]	@ zero_extendqisi2
 127 0134 000052E3 		cmp	r2, #0
 128 0138 8F00000A 		beq	.L62
 129 013c 250052E3 		cmp	r2, #37
 130 0140 8300000A 		beq	.L59
 131 0144 2D0052E3 		cmp	r2, #45
 132 0148 02308502 		addeq	r3, r5, #2
 133 014c 0160A003 		moveq	r6, #1
 134 0150 0060A013 		movne	r6, #0
 135              	.L34:
 136 0154 0310A0E1 		mov	r1, r3
 137 0158 013083E2 		add	r3, r3, #1
 138 015c 0020D1E5 		ldrb	r2, [r1]	@ zero_extendqisi2
 139 0160 300052E3 		cmp	r2, #48
 140 0164 02608603 		orreq	r6, r6, #2
 141 0168 F9FFFF0A 		beq	.L34
 142              	.L65:
 143 016c 0080A0E3 		mov	r8, #0
 144              	.L36:
 145 0170 0150A0E1 		mov	r5, r1
 146 0174 0030D1E5 		ldrb	r3, [r1]	@ zero_extendqisi2
 147 0178 011081E2 		add	r1, r1, #1
 148 017c 302043E2 		sub	r2, r3, #48
 149 0180 FF0002E2 		and	r0, r2, #255
 150 0184 090050E3 		cmp	r0, #9
 151 0188 0A30A093 		movls	r3, #10
 152 018c 93282890 		mlals	r8, r3, r8, r2
 153 0190 F6FFFF9A 		bls	.L36
 154              	.L66:
 155 0194 730053E3 		cmp	r3, #115
 156 0198 0800001A 		bne	.L38
 157 019c 04309DE5 		ldr	r3, [sp, #4]
 158 01a0 042083E2 		add	r2, r3, #4
 159 01a4 04208DE5 		str	r2, [sp, #4]
 160 01a8 001093E5 		ldr	r1, [r3]
 161 01ac 0000A0E3 		mov	r0, #0
 162 01b0 D8319FE5 		ldr	r3, .L67
 163 01b4 000051E1 		cmp	r1, r0
 164 01b8 0310A001 		moveq	r1, r3
 165 01bc 1A0000EA 		b	.L63
 166              	.L38:
 167 01c0 640053E3 		cmp	r3, #100
 168 01c4 1D00001A 		bne	.L41
 169 01c8 04309DE5 		ldr	r3, [sp, #4]
 170 01cc 042083E2 		add	r2, r3, #4
 171 01d0 04208DE5 		str	r2, [sp, #4]
 172 01d4 007093E5 		ldr	r7, [r3]
 173 01d8 000057E3 		cmp	r7, #0
 174 01dc 007067B2 		rsblt	r7, r7, #0
 175 01e0 2D00A0B3 		movlt	r0, #45
 176 01e4 FEFFFFBB 		bllt	_outbyte
 177              	.L42:
 178 01e8 0030A0E3 		mov	r3, #0
 179 01ec 1730CDE5 		strb	r3, [sp, #23]
 180 01f0 17908DE2 		add	r9, sp, #23
 181              	.L43:
 182 01f4 000057E2 		subs	r0, r7, #0
 183 01f8 0A00000A 		beq	.L64
 184 01fc 0A10A0E3 		mov	r1, #10
 185 0200 FEFFFFEB 		bl	_div
 186 0204 0930E0E3 		mvn	r3, #9
 187 0208 937020E0 		mla	r0, r3, r0, r7
 188 020c 303080E2 		add	r3, r0, #48
 189 0210 013069E5 		strb	r3, [r9, #-1]!
 190 0214 0700A0E1 		mov	r0, r7
 191 0218 0A10A0E3 		mov	r1, #10
 192 021c FEFFFFEB 		bl	_div
 193 0220 0070A0E1 		mov	r7, r0
 194 0224 F2FFFFEA 		b	.L43
 195              	.L64:
 196 0228 0910A0E1 		mov	r1, r9
 197              	.L63:
 198 022c 0820A0E1 		mov	r2, r8
 199 0230 0630A0E1 		mov	r3, r6
 200 0234 FEFFFFEB 		bl	prints
 201 0238 004084E0 		add	r4, r4, r0
 202 023c 4C0000EA 		b	.L40
 203              	.L41:
 204 0240 780053E3 		cmp	r3, #120
 205 0244 0F00001A 		bne	.L45
 206 0248 04309DE5 		ldr	r3, [sp, #4]
 207 024c 042083E2 		add	r2, r3, #4
 208 0250 04208DE5 		str	r2, [sp, #4]
 209 0254 000093E5 		ldr	r0, [r3]
 210 0258 0030A0E3 		mov	r3, #0
 211 025c 1730CDE5 		strb	r3, [sp, #23]
 212 0260 17108DE2 		add	r1, sp, #23
 213              	.L46:
 214 0264 000050E3 		cmp	r0, #0
 215 0268 EFFFFF0A 		beq	.L63
 216 026c 0F3000E2 		and	r3, r0, #15
 217 0270 090053E3 		cmp	r3, #9
 218 0274 273083C2 		addgt	r3, r3, #39
 219 0278 303083E2 		add	r3, r3, #48
 220 027c 013061E5 		strb	r3, [r1, #-1]!
 221 0280 2002A0E1 		mov	r0, r0, lsr #4
 222 0284 F6FFFFEA 		b	.L46
 223              	.L45:
 224 0288 580053E3 		cmp	r3, #88
 225 028c 0F00001A 		bne	.L49
 226 0290 04309DE5 		ldr	r3, [sp, #4]
 227 0294 042083E2 		add	r2, r3, #4
 228 0298 04208DE5 		str	r2, [sp, #4]
 229 029c 000093E5 		ldr	r0, [r3]
 230 02a0 0030A0E3 		mov	r3, #0
 231 02a4 1730CDE5 		strb	r3, [sp, #23]
 232 02a8 17108DE2 		add	r1, sp, #23
 233              	.L50:
 234 02ac 000050E3 		cmp	r0, #0
 235 02b0 DDFFFF0A 		beq	.L63
 236 02b4 0F3000E2 		and	r3, r0, #15
 237 02b8 090053E3 		cmp	r3, #9
 238 02bc 073083C2 		addgt	r3, r3, #7
 239 02c0 303083E2 		add	r3, r3, #48
 240 02c4 013061E5 		strb	r3, [r1, #-1]!
 241 02c8 2002A0E1 		mov	r0, r0, lsr #4
 242 02cc F6FFFFEA 		b	.L50
 243              	.L49:
 244 02d0 750053E3 		cmp	r3, #117
 245 02d4 1300001A 		bne	.L53
 246 02d8 04309DE5 		ldr	r3, [sp, #4]
 247 02dc 042083E2 		add	r2, r3, #4
 248 02e0 04208DE5 		str	r2, [sp, #4]
 249 02e4 007093E5 		ldr	r7, [r3]
 250 02e8 0030A0E3 		mov	r3, #0
 251 02ec 1730CDE5 		strb	r3, [sp, #23]
 252 02f0 17908DE2 		add	r9, sp, #23
 253              	.L54:
 254 02f4 000057E2 		subs	r0, r7, #0
 255 02f8 CAFFFF0A 		beq	.L64
 256 02fc 0A10A0E3 		mov	r1, #10
 257 0300 FEFFFFEB 		bl	_div
 258 0304 0930E0E3 		mvn	r3, #9
 259 0308 937020E0 		mla	r0, r3, r0, r7
 260 030c 303080E2 		add	r3, r0, #48
 261 0310 013069E5 		strb	r3, [r9, #-1]!
 262 0314 0700A0E1 		mov	r0, r7
 263 0318 0A10A0E3 		mov	r1, #10
 264 031c FEFFFFEB 		bl	_div
 265 0320 0070A0E1 		mov	r7, r0
 266 0324 F2FFFFEA 		b	.L54
 267              	.L53:
 268 0328 630053E3 		cmp	r3, #99
 269 032c 1000001A 		bne	.L40
 270 0330 04309DE5 		ldr	r3, [sp, #4]
 271 0334 042083E2 		add	r2, r3, #4
 272 0338 04208DE5 		str	r2, [sp, #4]
 273 033c 003093E5 		ldr	r3, [r3]
 274 0340 0830CDE5 		strb	r3, [sp, #8]
 275 0344 0000A0E3 		mov	r0, #0
 276 0348 0900CDE5 		strb	r0, [sp, #9]
 277 034c 08108DE2 		add	r1, sp, #8
 278 0350 B5FFFFEA 		b	.L63
 279              	.L59:
 280 0354 0350A0E1 		mov	r5, r3
 281              	.L31:
 282 0358 0030D5E5 		ldrb	r3, [r5]	@ zero_extendqisi2
 283 035c 0A0053E3 		cmp	r3, #10
 284 0360 0D00A003 		moveq	r0, #13
 285 0364 FEFFFF0B 		bleq	_outbyte
 286              	.L56:
 287 0368 0000D5E5 		ldrb	r0, [r5]	@ zero_extendqisi2
 288 036c FEFFFFEB 		bl	_outbyte
 289 0370 014084E2 		add	r4, r4, #1
 290              	.L40:
 291 0374 015085E2 		add	r5, r5, #1
 292 0378 66FFFFEA 		b	.L30
 293              	.L62:
 294 037c 0400A0E1 		mov	r0, r4
 295 0380 1CD08DE2 		add	sp, sp, #28
 296              		@ sp needed
 297 0384 F043BDE8 		ldmfd	sp!, {r4, r5, r6, r7, r8, r9, lr}
 298 0388 10D08DE2 		add	sp, sp, #16
 299 038c 0EF0A0E1 		mov	pc, lr
 300              	.L68:
 301              		.align	2
 302              	.L67:
 303 0390 00000000 		.word	.LC0
 305              		.section	.rodata.str1.1,"aMS",%progbits,1
 306              	.LC0:
 307 0000 286E756C 		.ascii	"(null)\000"
 307      6C2900
 308              		.ident	"GCC: (GNU Tools for ARM Embedded Processors) 4.8.4 20140725 (release) [ARM/embedded-4_8-br